target datalayout = "e-m:e-p270:32:32-p271:32:32-p272:64:64-i64:64-i128:128-f80:128-n8:16:32:64-S128"
target triple = "x86_64-pc-linux-gnu"

%"class.std::unique_ptr" = type { %"struct.std::__uniq_ptr_data" }
%"struct.std::__uniq_ptr_data" = type { %"class.std::__uniq_ptr_impl" }
%"class.std::__uniq_ptr_impl" = type { %"class.std::tuple" }
%"class.std::tuple" = type { %"struct.std::_Tuple_impl" }
%"struct.std::_Tuple_impl" = type { %"struct.std::_Head_base.2" }
%"struct.std::_Head_base.2" = type { ptr }
%"class.g2o::csparse::CSparse::Impl" = type { ptr, i32, ptr, ptr, ptr, %"struct.g2o::csparse::CSparseExt" }
%"struct.g2o::csparse::CSparseExt" = type <{ %struct.cs_di_sparse, i32, [4 x i8] }>
%struct.cs_di_sparse = type { i32, i32, i32, ptr, ptr, ptr, i32 }

; Function Attrs: mustprogress nounwind uwtable
define linkonce_odr noundef nonnull align 8 dereferenceable(8) ptr @_ZNSt10_Head_baseILm0EPN3g2o7csparse7CSparse4ImplELb0EE7_M_headERS5_(ptr noundef nonnull align 8 dereferenceable(8) %0) #1 comdat align 2 {
  %2 = alloca ptr, align 8
  store ptr %0, ptr %2, align 8, !tbaa !116
  %3 = load ptr, ptr %2, align 8, !tbaa !116
  %4 = getelementptr inbounds nuw %"struct.std::_Head_base.2", ptr %3, i32 0, i32 0
  ret ptr %4
}

; Function Attrs: mustprogress nounwind uwtable
define linkonce_odr noundef nonnull align 8 dereferenceable(8) ptr @_ZNSt11_Tuple_implILm0EJPN3g2o7csparse7CSparse4ImplESt14default_deleteIS3_EEE7_M_headERS7_(ptr noundef nonnull align 8 dereferenceable(8) %0) #1 comdat align 2 {
  %2 = alloca ptr, align 8
  store ptr %0, ptr %2, align 8, !tbaa !112
  %3 = load ptr, ptr %2, align 8, !tbaa !112
  %4 = call noundef nonnull align 8 dereferenceable(8) ptr @_ZNSt10_Head_baseILm0EPN3g2o7csparse7CSparse4ImplELb0EE7_M_headERS5_(ptr noundef nonnull align 8 dereferenceable(8) %3) #20
  ret ptr %4
}

; Function Attrs: mustprogress nounwind uwtable
define linkonce_odr void @_ZNSt10_Head_baseILm1ESt14default_deleteIN3g2o7csparse7CSparse4ImplEELb1EEC2Ev(ptr noundef nonnull align 1 dereferenceable(1) %0) unnamed_addr #1 comdat align 2 {
  %2 = alloca ptr, align 8
  store ptr %0, ptr %2, align 8, !tbaa !120
  ret void
}

; Function Attrs: mustprogress nounwind uwtable
define linkonce_odr noundef nonnull align 8 dereferenceable(8) ptr @_ZSt12__get_helperILm0EPN3g2o7csparse7CSparse4ImplEJSt14default_deleteIS3_EEERT0_RSt11_Tuple_implIXT_EJS7_DpT1_EE(ptr noundef nonnull align 8 dereferenceable(8) %0) #1 comdat {
  %2 = alloca ptr, align 8
  store ptr %0, ptr %2, align 8, !tbaa !112
  %3 = load ptr, ptr %2, align 8, !tbaa !112
  %4 = call noundef nonnull align 8 dereferenceable(8) ptr @_ZNSt11_Tuple_implILm0EJPN3g2o7csparse7CSparse4ImplESt14default_deleteIS3_EEE7_M_headERS7_(ptr noundef nonnull align 8 dereferenceable(8) %3) #20
  ret ptr %4
}

; Function Attrs: mustprogress nounwind uwtable
define linkonce_odr void @_ZNSt10_Head_baseILm0EPN3g2o7csparse7CSparse4ImplELb0EEC2Ev(ptr noundef nonnull align 8 dereferenceable(8) %0) unnamed_addr #1 comdat align 2 {
  %2 = alloca ptr, align 8
  store ptr %0, ptr %2, align 8, !tbaa !116
  %3 = load ptr, ptr %2, align 8
  %4 = getelementptr inbounds nuw %"struct.std::_Head_base.2", ptr %3, i32 0, i32 0
  store ptr null, ptr %4, align 8, !tbaa !118
  ret void
}

; Function Attrs: mustprogress uwtable
define linkonce_odr void @_ZNSt11_Tuple_implILm1EJSt14default_deleteIN3g2o7csparse7CSparse4ImplEEEEC2Ev(ptr noundef nonnull align 1 dereferenceable(1) %0) unnamed_addr #3 comdat align 2 {
  %2 = alloca ptr, align 8
  store ptr %0, ptr %2, align 8, !tbaa !114
  %3 = load ptr, ptr %2, align 8
  call void @_ZNSt10_Head_baseILm1ESt14default_deleteIN3g2o7csparse7CSparse4ImplEELb1EEC2Ev(ptr noundef nonnull align 1 dereferenceable(1) %3)
  ret void
}

; Function Attrs: mustprogress nounwind uwtable
define linkonce_odr noundef nonnull align 8 dereferenceable(8) ptr @_ZSt3getILm0EJPN3g2o7csparse7CSparse4ImplESt14default_deleteIS3_EEERNSt13tuple_elementIXT_ESt5tupleIJDpT0_EEE4typeERSB_(ptr noundef nonnull align 8 dereferenceable(8) %0) #1 comdat {
  %2 = alloca ptr, align 8
  store ptr %0, ptr %2, align 8, !tbaa !110
  %3 = load ptr, ptr %2, align 8, !tbaa !110
  %4 = call noundef nonnull align 8 dereferenceable(8) ptr @_ZSt12__get_helperILm0EPN3g2o7csparse7CSparse4ImplEJSt14default_deleteIS3_EEERT0_RSt11_Tuple_implIXT_EJS7_DpT1_EE(ptr noundef nonnull align 8 dereferenceable(8) %3) #20
  ret ptr %4
}

; Function Attrs: mustprogress uwtable
define linkonce_odr void @_ZNSt11_Tuple_implILm0EJPN3g2o7csparse7CSparse4ImplESt14default_deleteIS3_EEEC2Ev(ptr noundef nonnull align 8 dereferenceable(8) %0) unnamed_addr #3 comdat align 2 {
  %2 = alloca ptr, align 8
  store ptr %0, ptr %2, align 8, !tbaa !112
  %3 = load ptr, ptr %2, align 8
  call void @_ZNSt11_Tuple_implILm1EJSt14default_deleteIN3g2o7csparse7CSparse4ImplEEEEC2Ev(ptr noundef nonnull align 1 dereferenceable(1) %3)
  call void @_ZNSt10_Head_baseILm0EPN3g2o7csparse7CSparse4ImplELb0EEC2Ev(ptr noundef nonnull align 8 dereferenceable(8) %3)
  ret void
}

; Function Attrs: mustprogress nounwind uwtable
define linkonce_odr noundef nonnull align 8 dereferenceable(8) ptr @_ZNSt15__uniq_ptr_implIN3g2o7csparse7CSparse4ImplESt14default_deleteIS3_EE6_M_ptrEv(ptr noundef nonnull align 8 dereferenceable(8) %0) #1 comdat align 2 {
  %2 = alloca ptr, align 8
  store ptr %0, ptr %2, align 8, !tbaa !108
  %3 = load ptr, ptr %2, align 8
  %4 = getelementptr inbounds nuw %"class.std::__uniq_ptr_impl", ptr %3, i32 0, i32 0
  %5 = call noundef nonnull align 8 dereferenceable(8) ptr @_ZSt3getILm0EJPN3g2o7csparse7CSparse4ImplESt14default_deleteIS3_EEERNSt13tuple_elementIXT_ESt5tupleIJDpT0_EEE4typeERSB_(ptr noundef nonnull align 8 dereferenceable(8) %4) #20
  ret ptr %5
}

; Function Attrs: mustprogress nounwind uwtable
define linkonce_odr void @_ZNSt5tupleIJPN3g2o7csparse7CSparse4ImplESt14default_deleteIS3_EEEC2ILb1ETnNSt9enable_ifIXclsr17_TupleConstraintsIXT_ES4_S6_EE37__is_implicitly_default_constructibleEEbE4typeELb1EEEv(ptr noundef nonnull align 8 dereferenceable(8) %0) unnamed_addr #1 comdat align 2 personality ptr @__gxx_personality_v0 {
  %2 = alloca ptr, align 8
  store ptr %0, ptr %2, align 8, !tbaa !110
  %3 = load ptr, ptr %2, align 8
  invoke void @_ZNSt11_Tuple_implILm0EJPN3g2o7csparse7CSparse4ImplESt14default_deleteIS3_EEEC2Ev(ptr noundef nonnull align 8 dereferenceable(8) %3)
          to label %4 unwind label %5

4:                                                ; preds = %1
  ret void

5:                                                ; preds = %1
  %6 = landingpad { ptr, i32 }
          catch ptr null
  %7 = extractvalue { ptr, i32 } %6, 0
  call void @__clang_call_terminate(ptr %7) #23
  unreachable
}

; Function Attrs: mustprogress nounwind uwtable
define linkonce_odr void @_ZNSt15__uniq_ptr_implIN3g2o7csparse7CSparse4ImplESt14default_deleteIS3_EEC2EPS3_(ptr noundef nonnull align 8 dereferenceable(8) %0, ptr noundef %1) unnamed_addr #1 comdat align 2 {
  %3 = alloca ptr, align 8
  %4 = alloca ptr, align 8
  store ptr %0, ptr %3, align 8, !tbaa !108
  store ptr %1, ptr %4, align 8, !tbaa !20
  %5 = load ptr, ptr %3, align 8
  %6 = getelementptr inbounds nuw %"class.std::__uniq_ptr_impl", ptr %5, i32 0, i32 0
  call void @_ZNSt5tupleIJPN3g2o7csparse7CSparse4ImplESt14default_deleteIS3_EEEC2ILb1ETnNSt9enable_ifIXclsr17_TupleConstraintsIXT_ES4_S6_EE37__is_implicitly_default_constructibleEEbE4typeELb1EEEv(ptr noundef nonnull align 8 dereferenceable(8) %6) #20
  %7 = load ptr, ptr %4, align 8, !tbaa !20
  %8 = call noundef nonnull align 8 dereferenceable(8) ptr @_ZNSt15__uniq_ptr_implIN3g2o7csparse7CSparse4ImplESt14default_deleteIS3_EE6_M_ptrEv(ptr noundef nonnull align 8 dereferenceable(8) %5) #20
  store ptr %7, ptr %8, align 8, !tbaa !20
  ret void
}

; Function Attrs: noinline noreturn nounwind uwtable
define linkonce_odr hidden void @__clang_call_terminate(ptr noundef %0) #8 comdat {
  %2 = call ptr @__cxa_begin_catch(ptr %0) #20
  call void @_ZSt9terminatev() #23
  unreachable
}

; Function Attrs: inlinehint mustprogress uwtable
define linkonce_odr void @_ZNSt15__uniq_ptr_dataIN3g2o7csparse7CSparse4ImplESt14default_deleteIS3_ELb1ELb1EECI2St15__uniq_ptr_implIS3_S5_EEPS3_(ptr noundef nonnull align 8 dereferenceable(8) %0, ptr noundef %1) unnamed_addr #4 comdat align 2 {
  %3 = alloca ptr, align 8
  %4 = alloca ptr, align 8
  store ptr %0, ptr %3, align 8, !tbaa !106
  store ptr %1, ptr %4, align 8, !tbaa !20
  %5 = load ptr, ptr %3, align 8
  %6 = load ptr, ptr %4, align 8, !tbaa !20
  call void @_ZNSt15__uniq_ptr_implIN3g2o7csparse7CSparse4ImplESt14default_deleteIS3_EEC2EPS3_(ptr noundef nonnull align 8 dereferenceable(8) %5, ptr noundef %6)
  ret void
}

; Function Attrs: mustprogress nounwind uwtable
define linkonce_odr void @_ZN3g2o7csparse10CSparseExtC2Ev(ptr noundef nonnull align 8 dereferenceable(52) %0) unnamed_addr #1 comdat align 2 {
  %2 = alloca ptr, align 8
  store ptr %0, ptr %2, align 8, !tbaa !64
  %3 = load ptr, ptr %2, align 8
  %4 = getelementptr inbounds nuw %"struct.g2o::csparse::CSparseExt", ptr %3, i32 0, i32 1
  store i32 0, ptr %4, align 8, !tbaa !105
  %5 = getelementptr inbounds nuw %struct.cs_di_sparse, ptr %3, i32 0, i32 0
  store i32 0, ptr %5, align 8, !tbaa !40
  %6 = getelementptr inbounds nuw %struct.cs_di_sparse, ptr %3, i32 0, i32 1
  store i32 0, ptr %6, align 4, !tbaa !42
  %7 = getelementptr inbounds nuw %struct.cs_di_sparse, ptr %3, i32 0, i32 2
  store i32 0, ptr %7, align 8, !tbaa !44
  %8 = getelementptr inbounds nuw %struct.cs_di_sparse, ptr %3, i32 0, i32 3
  store ptr null, ptr %8, align 8, !tbaa !47
  %9 = getelementptr inbounds nuw %struct.cs_di_sparse, ptr %3, i32 0, i32 4
  store ptr null, ptr %9, align 8, !tbaa !49
  %10 = getelementptr inbounds nuw %struct.cs_di_sparse, ptr %3, i32 0, i32 5
  store ptr null, ptr %10, align 8, !tbaa !50
  %11 = getelementptr inbounds nuw %struct.cs_di_sparse, ptr %3, i32 0, i32 6
  store i32 -1, ptr %11, align 8, !tbaa !51
  ret void
}

; Function Attrs: mustprogress nounwind uwtable
define linkonce_odr void @_ZNSt10unique_ptrIN3g2o7csparse7CSparse4ImplESt14default_deleteIS3_EEC2IS5_vEEPS3_(ptr noundef nonnull align 8 dereferenceable(8) %0, ptr noundef %1) unnamed_addr #1 comdat align 2 personality ptr @__gxx_personality_v0 {
  %3 = alloca ptr, align 8
  %4 = alloca ptr, align 8
  store ptr %0, ptr %3, align 8, !tbaa !16
  store ptr %1, ptr %4, align 8, !tbaa !20
  %5 = load ptr, ptr %3, align 8
  %6 = getelementptr inbounds nuw %"class.std::unique_ptr", ptr %5, i32 0, i32 0
  %7 = load ptr, ptr %4, align 8, !tbaa !20
  invoke void @_ZNSt15__uniq_ptr_dataIN3g2o7csparse7CSparse4ImplESt14default_deleteIS3_ELb1ELb1EECI2St15__uniq_ptr_implIS3_S5_EEPS3_(ptr noundef nonnull align 8 dereferenceable(8) %6, ptr noundef %7)
          to label %8 unwind label %9

8:                                                ; preds = %2
  ret void

9:                                                ; preds = %2
  %10 = landingpad { ptr, i32 }
          catch ptr null
  %11 = extractvalue { ptr, i32 } %10, 0
  call void @__clang_call_terminate(ptr %11) #23
  unreachable
}

; Function Attrs: mustprogress uwtable
define linkonce_odr void @_ZN3g2o7csparse7CSparse4ImplC2Ev(ptr noundef nonnull align 8 dereferenceable(96) %0) unnamed_addr #3 comdat align 2 {
  %2 = alloca ptr, align 8
  store ptr %0, ptr %2, align 8, !tbaa !20
  %3 = load ptr, ptr %2, align 8
  %4 = getelementptr inbounds nuw %"class.g2o::csparse::CSparse::Impl", ptr %3, i32 0, i32 0
  store ptr null, ptr %4, align 8, !tbaa !72
  %5 = getelementptr inbounds nuw %"class.g2o::csparse::CSparse::Impl", ptr %3, i32 0, i32 1
  store i32 0, ptr %5, align 8, !tbaa !78
  %6 = getelementptr inbounds nuw %"class.g2o::csparse::CSparse::Impl", ptr %3, i32 0, i32 2
  store ptr null, ptr %6, align 8, !tbaa !76
  %7 = getelementptr inbounds nuw %"class.g2o::csparse::CSparse::Impl", ptr %3, i32 0, i32 3
  store ptr null, ptr %7, align 8, !tbaa !77
  %8 = getelementptr inbounds nuw %"class.g2o::csparse::CSparse::Impl", ptr %3, i32 0, i32 4
  store ptr null, ptr %8, align 8, !tbaa !22
  %9 = getelementptr inbounds nuw %"class.g2o::csparse::CSparse::Impl", ptr %3, i32 0, i32 5
  call void @_ZN3g2o7csparse10CSparseExtC2Ev(ptr noundef nonnull align 8 dereferenceable(52) %9)
  ret void
}

; Function Attrs: inlinehint mustprogress uwtable
define linkonce_odr void @_ZSt11make_uniqueIN3g2o7csparse7CSparse4ImplEJEENSt8__detail9_MakeUniqIT_E15__single_objectEDpOT0_(ptr dead_on_unwind noalias writable sret(%"class.std::unique_ptr") align 8 %0) #4 comdat personality ptr @__gxx_personality_v0 {
  %2 = alloca ptr, align 8
  %3 = alloca ptr, align 8
  %4 = alloca i32, align 4
  store ptr %0, ptr %2, align 8
  %5 = call noalias noundef nonnull ptr @_Znwm(i64 noundef 96) #21
  call void @llvm.memset.p0.i64(ptr align 16 %5, i8 0, i64 96, i1 false)
  invoke void @_ZN3g2o7csparse7CSparse4ImplC2Ev(ptr noundef nonnull align 8 dereferenceable(96) %5)
          to label %6 unwind label %7

6:                                                ; preds = %1
  call void @_ZNSt10unique_ptrIN3g2o7csparse7CSparse4ImplESt14default_deleteIS3_EEC2IS5_vEEPS3_(ptr noundef nonnull align 8 dereferenceable(8) %0, ptr noundef %5) #20
  ret void

7:                                                ; preds = %1
  %8 = landingpad { ptr, i32 }
          cleanup
  %9 = extractvalue { ptr, i32 } %8, 0
  store ptr %9, ptr %3, align 8
  %10 = extractvalue { ptr, i32 } %8, 1
  store i32 %10, ptr %4, align 4
  call void @_ZdlPvm(ptr noundef %5, i64 noundef 96) #22
  br label %11

11:                                               ; preds = %7
  %12 = load ptr, ptr %3, align 8
  %13 = load i32, ptr %4, align 4
  %14 = insertvalue { ptr, i32 } poison, ptr %12, 0
  %15 = insertvalue { ptr, i32 } %14, i32 %13, 1
  resume { ptr, i32 } %15
}

; Function Attrs: mustprogress uwtable
define void @_ZN3g2o7csparse7CSparseC2Ev(ptr noundef nonnull align 8 dereferenceable(8) %0) unnamed_addr #3 align 2 {
  %2 = alloca ptr, align 8
  store ptr %0, ptr %2, align 8, !tbaa !14
  %3 = load ptr, ptr %2, align 8
  call void @_ZSt11make_uniqueIN3g2o7csparse7CSparse4ImplEJEENSt8__detail9_MakeUniqIT_E15__single_objectEDpOT0_(ptr dead_on_unwind writable sret(%"class.std::unique_ptr") align 8 %3)
  ret void
}