; Function Attrs: mustprogress uwtable
define void @_ZN3g2o7csparse7CSparseC2Ev(ptr noundef nonnull writeonly align 8 captures(none) dereferenceable(8) initializes((0, 8)) %0) unnamed_addr #0 align 2 personality ptr @__gxx_personality_v0 {
  tail call void @llvm.experimental.noalias.scope.decl(metadata !3)
  %2 = tail call noalias noundef nonnull dereferenceable(96) ptr @_Znwm(i64 noundef 96) #19, !noalias !3
  %3 = getelementptr inbounds nuw i8, ptr %2, i64 80
  tail call void @llvm.memset.p0.i64(ptr noundef nonnull align 8 dereferenceable(96) %2, i8 0, i64 96, i1 false), !noalias !3
  store i32 -1, ptr %3, align 8, !tbaa !6, !noalias !3
  store ptr %2, ptr %0, align 8, !tbaa !14, !alias.scope !3
  ret void
}